target datalayout = "e-m:e-p270:32:32-p271:32:32-p272:64:64-i64:64-i128:128-f80:128-n8:16:32:64-S128"
target triple = "x86_64-pc-linux-gnu"

@.str = private unnamed_addr constant [2 x i8] c"\0A\00", align 1
@.str.202 = private unnamed_addr constant [80 x i8] c"==============================================================================\0A\00", align 1
@.str.203 = private unnamed_addr constant [57 x i8] c"metaflac - Command-line FLAC metadata editor version %s\0A\00", align 1
@FLAC__VERSION_STRING = external global ptr, align 8
@.str.204 = private unnamed_addr constant [39 x i8] c"Copyright (C) 2001-2009  Josh Coalson\0A\00", align 1
@.str.205 = private unnamed_addr constant [46 x i8] c"Copyright (C) 2011-2025  Xiph.Org Foundation\0A\00", align 1
@.str.206 = private unnamed_addr constant [63 x i8] c"This program is free software; you can redistribute it and/or\0A\00", align 1
@.str.207 = private unnamed_addr constant [61 x i8] c"modify it under the terms of the GNU General Public License\0A\00", align 1
@.str.208 = private unnamed_addr constant [64 x i8] c"as published by the Free Software Foundation; either version 2\0A\00", align 1
@.str.209 = private unnamed_addr constant [56 x i8] c"of the License, or (at your option) any later version.\0A\00", align 1
@.str.210 = private unnamed_addr constant [65 x i8] c"This program is distributed in the hope that it will be useful,\0A\00", align 1
@.str.211 = private unnamed_addr constant [64 x i8] c"but WITHOUT ANY WARRANTY; without even the implied warranty of\0A\00", align 1
@.str.212 = private unnamed_addr constant [63 x i8] c"MERCHANTABILITY or FITNESS FOR A PARTICULAR PURPOSE.  See the\0A\00", align 1
@.str.213 = private unnamed_addr constant [46 x i8] c"GNU General Public License for more details.\0A\00", align 1
@.str.214 = private unnamed_addr constant [73 x i8] c"You should have received a copy of the GNU General Public License along\0A\00", align 1
@.str.215 = private unnamed_addr constant [73 x i8] c"with this program; if not, write to the Free Software Foundation, Inc.,\0A\00", align 1
@.str.216 = private unnamed_addr constant [61 x i8] c"51 Franklin Street, Fifth Floor, Boston, MA 02110-1301 USA.\0A\00", align 1

; Function Attrs: nounwind sspstrong uwtable
define internal void @usage_header(ptr noundef %0) #0 {
  %2 = alloca ptr, align 8
  store ptr %0, ptr %2, align 8, !tbaa !9
  %3 = load ptr, ptr %2, align 8, !tbaa !9
  %4 = call i32 (ptr, i32, ptr, ...) @__fprintf_chk(ptr noundef %3, i32 noundef 1, ptr noundef @.str.202)
  %5 = load ptr, ptr %2, align 8, !tbaa !9
  %6 = load ptr, ptr @FLAC__VERSION_STRING, align 8, !tbaa !4
  %7 = call i32 (ptr, i32, ptr, ...) @__fprintf_chk(ptr noundef %5, i32 noundef 1, ptr noundef @.str.203, ptr noundef %6)
  %8 = load ptr, ptr %2, align 8, !tbaa !9
  %9 = call i32 (ptr, i32, ptr, ...) @__fprintf_chk(ptr noundef %8, i32 noundef 1, ptr noundef @.str.204)
  %10 = load ptr, ptr %2, align 8, !tbaa !9
  %11 = call i32 (ptr, i32, ptr, ...) @__fprintf_chk(ptr noundef %10, i32 noundef 1, ptr noundef @.str.205)
  %12 = load ptr, ptr %2, align 8, !tbaa !9
  %13 = call i32 (ptr, i32, ptr, ...) @__fprintf_chk(ptr noundef %12, i32 noundef 1, ptr noundef @.str)
  %14 = load ptr, ptr %2, align 8, !tbaa !9
  %15 = call i32 (ptr, i32, ptr, ...) @__fprintf_chk(ptr noundef %14, i32 noundef 1, ptr noundef @.str.206)
  %16 = load ptr, ptr %2, align 8, !tbaa !9
  %17 = call i32 (ptr, i32, ptr, ...) @__fprintf_chk(ptr noundef %16, i32 noundef 1, ptr noundef @.str.207)
  %18 = load ptr, ptr %2, align 8, !tbaa !9
  %19 = call i32 (ptr, i32, ptr, ...) @__fprintf_chk(ptr noundef %18, i32 noundef 1, ptr noundef @.str.208)
  %20 = load ptr, ptr %2, align 8, !tbaa !9
  %21 = call i32 (ptr, i32, ptr, ...) @__fprintf_chk(ptr noundef %20, i32 noundef 1, ptr noundef @.str.209)
  %22 = load ptr, ptr %2, align 8, !tbaa !9
  %23 = call i32 (ptr, i32, ptr, ...) @__fprintf_chk(ptr noundef %22, i32 noundef 1, ptr noundef @.str)
  %24 = load ptr, ptr %2, align 8, !tbaa !9
  %25 = call i32 (ptr, i32, ptr, ...) @__fprintf_chk(ptr noundef %24, i32 noundef 1, ptr noundef @.str.210)
  %26 = load ptr, ptr %2, align 8, !tbaa !9
  %27 = call i32 (ptr, i32, ptr, ...) @__fprintf_chk(ptr noundef %26, i32 noundef 1, ptr noundef @.str.211)
  %28 = load ptr, ptr %2, align 8, !tbaa !9
  %29 = call i32 (ptr, i32, ptr, ...) @__fprintf_chk(ptr noundef %28, i32 noundef 1, ptr noundef @.str.212)
  %30 = load ptr, ptr %2, align 8, !tbaa !9
  %31 = call i32 (ptr, i32, ptr, ...) @__fprintf_chk(ptr noundef %30, i32 noundef 1, ptr noundef @.str.213)
  %32 = load ptr, ptr %2, align 8, !tbaa !9
  %33 = call i32 (ptr, i32, ptr, ...) @__fprintf_chk(ptr noundef %32, i32 noundef 1, ptr noundef @.str)
  %34 = load ptr, ptr %2, align 8, !tbaa !9
  %35 = call i32 (ptr, i32, ptr, ...) @__fprintf_chk(ptr noundef %34, i32 noundef 1, ptr noundef @.str.214)
  %36 = load ptr, ptr %2, align 8, !tbaa !9
  %37 = call i32 (ptr, i32, ptr, ...) @__fprintf_chk(ptr noundef %36, i32 noundef 1, ptr noundef @.str.215)
  %38 = load ptr, ptr %2, align 8, !tbaa !9
  %39 = call i32 (ptr, i32, ptr, ...) @__fprintf_chk(ptr noundef %38, i32 noundef 1, ptr noundef @.str.216)
  %40 = load ptr, ptr %2, align 8, !tbaa !9
  %41 = call i32 (ptr, i32, ptr, ...) @__fprintf_chk(ptr noundef %40, i32 noundef 1, ptr noundef @.str.202)
  ret void
}