; Function Attrs: nounwind sspstrong uwtable
define internal fastcc void @usage_header(ptr noundef %0) unnamed_addr #0 {
  %2 = tail call i32 (ptr, i32, ptr, ...) @__fprintf_chk(ptr noundef %0, i32 noundef 1, ptr noundef nonnull @.str.202) #4
  %3 = load ptr, ptr @FLAC__VERSION_STRING, align 8, !tbaa !9
  %4 = tail call i32 (ptr, i32, ptr, ...) @__fprintf_chk(ptr noundef %0, i32 noundef 1, ptr noundef nonnull @.str.203, ptr noundef %3) #4
  %5 = tail call i32 (ptr, i32, ptr, ...) @__fprintf_chk(ptr noundef %0, i32 noundef 1, ptr noundef nonnull @.str.204) #4
  %6 = tail call i32 (ptr, i32, ptr, ...) @__fprintf_chk(ptr noundef %0, i32 noundef 1, ptr noundef nonnull @.str.205) #4
  %7 = tail call i32 (ptr, i32, ptr, ...) @__fprintf_chk(ptr noundef %0, i32 noundef 1, ptr noundef nonnull @.str) #4
  %8 = tail call i32 (ptr, i32, ptr, ...) @__fprintf_chk(ptr noundef %0, i32 noundef 1, ptr noundef nonnull @.str.206) #4
  %9 = tail call i32 (ptr, i32, ptr, ...) @__fprintf_chk(ptr noundef %0, i32 noundef 1, ptr noundef nonnull @.str.207) #4
  %10 = tail call i32 (ptr, i32, ptr, ...) @__fprintf_chk(ptr noundef %0, i32 noundef 1, ptr noundef nonnull @.str.208) #4
  %11 = tail call i32 (ptr, i32, ptr, ...) @__fprintf_chk(ptr noundef %0, i32 noundef 1, ptr noundef nonnull @.str.209) #4
  %12 = tail call i32 (ptr, i32, ptr, ...) @__fprintf_chk(ptr noundef %0, i32 noundef 1, ptr noundef nonnull @.str) #4
  %13 = tail call i32 (ptr, i32, ptr, ...) @__fprintf_chk(ptr noundef %0, i32 noundef 1, ptr noundef nonnull @.str.210) #4
  %14 = tail call i32 (ptr, i32, ptr, ...) @__fprintf_chk(ptr noundef %0, i32 noundef 1, ptr noundef nonnull @.str.211) #4
  %15 = tail call i32 (ptr, i32, ptr, ...) @__fprintf_chk(ptr noundef %0, i32 noundef 1, ptr noundef nonnull @.str.212) #4
  %16 = tail call i32 (ptr, i32, ptr, ...) @__fprintf_chk(ptr noundef %0, i32 noundef 1, ptr noundef nonnull @.str.213) #4
  %17 = tail call i32 (ptr, i32, ptr, ...) @__fprintf_chk(ptr noundef %0, i32 noundef 1, ptr noundef nonnull @.str) #4
  %18 = tail call i32 (ptr, i32, ptr, ...) @__fprintf_chk(ptr noundef %0, i32 noundef 1, ptr noundef nonnull @.str.214) #4
  %19 = tail call i32 (ptr, i32, ptr, ...) @__fprintf_chk(ptr noundef %0, i32 noundef 1, ptr noundef nonnull @.str.215) #4
  %20 = tail call i32 (ptr, i32, ptr, ...) @__fprintf_chk(ptr noundef %0, i32 noundef 1, ptr noundef nonnull @.str.216) #4
  %21 = tail call i32 (ptr, i32, ptr, ...) @__fprintf_chk(ptr noundef %0, i32 noundef 1, ptr noundef nonnull @.str.202) #4
  ret void
}